target datalayout = "e-m:e-p270:32:32-p271:32:32-p272:64:64-i64:64-i128:128-f80:128-n8:16:32:64-S128"
target triple = "x86_64-pc-linux-gnu"

%struct.H5G_copy_file_ud_t = type { %struct.H5O_copy_file_ud_common_t, i32, %union.H5G_cache_t }
%struct.H5O_copy_file_ud_common_t = type { ptr }
%union.H5G_cache_t = type { %struct.anon }
%struct.anon = type { i64, i64 }

@H5_H5G_copy_file_ud_t_reg_free_list = global { i8, [3 x i8], i32, i32, [4 x i8], ptr, i64, ptr } { i8 0, [3 x i8] zeroinitializer, i32 0, i32 0, [4 x i8] zeroinitializer, ptr @.str.1, i64 32, ptr null }, align 8
@H5G_init_g = external global i8, align 1
@H5_libterm_g = external global i8, align 1

; Function Attrs: nounwind uwtable
define internal void @H5O__group_free_copy_file_udata(ptr noundef %0) #0 {
  %2 = alloca ptr, align 8
  %3 = alloca ptr, align 8
  store ptr %0, ptr %2, align 8, !tbaa !3
  call void @llvm.lifetime.start.p0(i64 8, ptr %3) #4
  %4 = load ptr, ptr %2, align 8, !tbaa !3
  store ptr %4, ptr %3, align 8, !tbaa !13
  %5 = load i8, ptr @H5G_init_g, align 1, !tbaa !7, !range !9, !noundef !10
  %6 = trunc i8 %5 to i1
  br i1 %6, label %11, label %7

7:                                                ; preds = %1
  %8 = load i8, ptr @H5_libterm_g, align 1, !tbaa !7, !range !9, !noundef !10
  %9 = trunc i8 %8 to i1
  %10 = xor i1 %9, true
  br label %11

11:                                               ; preds = %7, %1
  %12 = phi i1 [ true, %1 ], [ %10, %7 ]
  %13 = xor i1 %12, true
  %14 = xor i1 %13, true
  %15 = zext i1 %14 to i32
  %16 = sext i32 %15 to i64
  %17 = call i64 @llvm.expect.i64(i64 %16, i64 1)
  %18 = icmp ne i64 %17, 0
  br i1 %18, label %19, label %27

19:                                               ; preds = %11
  %20 = load ptr, ptr %3, align 8, !tbaa !13
  %21 = getelementptr inbounds nuw %struct.H5G_copy_file_ud_t, ptr %20, i32 0, i32 0
  %22 = getelementptr inbounds nuw %struct.H5O_copy_file_ud_common_t, ptr %21, i32 0, i32 0
  %23 = load ptr, ptr %22, align 8, !tbaa !15
  %24 = call ptr @H5O_msg_free(i32 noundef 11, ptr noundef %23)
  %25 = load ptr, ptr %3, align 8, !tbaa !13
  %26 = call ptr @H5FL_reg_free(ptr noundef @H5_H5G_copy_file_ud_t_reg_free_list, ptr noundef %25)
  store ptr %26, ptr %3, align 8, !tbaa !13
  br label %27

27:                                               ; preds = %19, %11
  call void @llvm.lifetime.end.p0(i64 8, ptr %3) #4
  ret void
}