; Function Attrs: nounwind uwtable
define internal void @H5O__group_free_copy_file_udata(ptr noundef %0) #0 {
  %2 = load i8, ptr @H5G_init_g, align 1, !tbaa !3, !range !7, !noundef !8
  %3 = trunc nuw i8 %2 to i1
  %4 = load i8, ptr @H5_libterm_g, align 1, !range !7
  %5 = trunc nuw i8 %4 to i1
  %6 = xor i1 %5, true
  %7 = select i1 %3, i1 true, i1 %6
  br i1 %7, label %8, label %12, !prof !9

8:                                                ; preds = %1
  %9 = load ptr, ptr %0, align 8, !tbaa !12
  %10 = tail call ptr @H5O_msg_free(i32 noundef 11, ptr noundef %9) #3
  %11 = tail call ptr @H5FL_reg_free(ptr noundef nonnull @H5_H5G_copy_file_ud_t_reg_free_list, ptr noundef nonnull %0) #3
  br label %12

12:                                               ; preds = %8, %1
  ret void
}